; Function Attrs: nounwind uwtable
define dso_local noundef zeroext i1 @describeSubscriptions(ptr noundef %0, i1 noundef zeroext %1) local_unnamed_addr #0 {
  %3 = alloca %struct.PQExpBufferData, align 8
  %4 = alloca i32, align 4
  %5 = alloca %struct.PQExpBufferData, align 8
  %6 = alloca %struct.printQueryOpt, align 8
  %7 = alloca [32 x i8], align 16
  call void @llvm.lifetime.start.p0(i64 24, ptr nonnull %5) #8
  call void @llvm.lifetime.start.p0(i64 168, ptr nonnull %6) #8
  call void @llvm.memcpy.p0.p0.i64(ptr noundef nonnull align 8 dereferenceable(168) %6, ptr noundef nonnull align 8 dereferenceable(168) getelementptr inbounds nuw (i8, ptr @pset, i64 48), i64 168, i1 false)
  %8 = load i32, ptr getelementptr inbounds nuw (i8, ptr @pset, i64 332), align 4
  %9 = icmp slt i32 %8, 100000
  br i1 %9, label %10, label %12

10:                                               ; preds = %2
  call void @llvm.lifetime.start.p0(i64 32, ptr nonnull %7) #8
  %11 = call ptr @formatPGVersionNumber(i32 noundef %8, i1 noundef zeroext false, ptr noundef nonnull %7, i64 noundef 32) #8
  call void (i32, i32, ptr, ...) @pg_log_generic(i32 noundef 4, i32 noundef 0, ptr noundef nonnull @.str.540, ptr noundef %11) #8
  call void @llvm.lifetime.end.p0(i64 32, ptr nonnull %7) #8
  br label %42

12:                                               ; preds = %2
  call void @initPQExpBuffer(ptr noundef nonnull %5) #8
  call void (ptr, ptr, ...) @printfPQExpBuffer(ptr noundef nonnull %5, ptr noundef nonnull @.str.541, ptr noundef nonnull @.str.2, ptr noundef nonnull @.str.26, ptr noundef nonnull @.str.375, ptr noundef nonnull @.str.542) #8
  br i1 %1, label %13, label %27

13:                                               ; preds = %12
  %14 = load i32, ptr getelementptr inbounds nuw (i8, ptr @pset, i64 332), align 4
  %15 = icmp sgt i32 %14, 139999
  br i1 %15, label %16, label %.thread10

16:                                               ; preds = %13
  call void (ptr, ptr, ...) @appendPQExpBuffer(ptr noundef nonnull %5, ptr noundef nonnull @.str.543, ptr noundef nonnull @.str.544) #8
  %17 = load i32, ptr getelementptr inbounds nuw (i8, ptr @pset, i64 332), align 4
  %18 = icmp sgt i32 %17, 159999
  %.str.545..str.547 = select i1 %18, ptr @.str.545, ptr @.str.547
  call void (ptr, ptr, ...) @appendPQExpBuffer(ptr noundef nonnull %5, ptr noundef nonnull %.str.545..str.547, ptr noundef nonnull @.str.546) #8
  %.pr = load i32, ptr getelementptr inbounds nuw (i8, ptr @pset, i64 332), align 4
  %19 = icmp sgt i32 %.pr, 149999
  br i1 %19, label %20, label %.thread10

20:                                               ; preds = %16
  call void (ptr, ptr, ...) @appendPQExpBuffer(ptr noundef nonnull %5, ptr noundef nonnull @.str.548, ptr noundef nonnull @.str.549, ptr noundef nonnull @.str.550) #8
  %.pr6 = load i32, ptr getelementptr inbounds nuw (i8, ptr @pset, i64 332), align 4
  %21 = icmp sgt i32 %.pr6, 159999
  br i1 %21, label %.thread7, label %.thread10

.thread7:                                         ; preds = %20
  call void (ptr, ptr, ...) @appendPQExpBuffer(ptr noundef nonnull %5, ptr noundef nonnull @.str.551, ptr noundef nonnull @.str.552, ptr noundef nonnull @.str.553, ptr noundef nonnull @.str.554) #8
  %.pr9.pr = load i32, ptr getelementptr inbounds nuw (i8, ptr @pset, i64 332), align 4
  %22 = icmp sgt i32 %.pr9.pr, 169999
  br i1 %22, label %23, label %.thread10

23:                                               ; preds = %.thread7
  call void (ptr, ptr, ...) @appendPQExpBuffer(ptr noundef nonnull %5, ptr noundef nonnull @.str.555, ptr noundef nonnull @.str.556) #8
  br label %.thread10

.thread10:                                        ; preds = %16, %13, %20, %23, %.thread7
  call void (ptr, ptr, ...) @appendPQExpBuffer(ptr noundef nonnull %5, ptr noundef nonnull @.str.557, ptr noundef nonnull @.str.558, ptr noundef nonnull @.str.559) #8
  %24 = load i32, ptr getelementptr inbounds nuw (i8, ptr @pset, i64 332), align 4
  %25 = icmp sgt i32 %24, 149999
  br i1 %25, label %26, label %27

26:                                               ; preds = %.thread10
  call void (ptr, ptr, ...) @appendPQExpBuffer(ptr noundef nonnull %5, ptr noundef nonnull @.str.560, ptr noundef nonnull @.str.561) #8
  br label %27

27:                                               ; preds = %.thread10, %26, %12
  call void @appendPQExpBufferStr(ptr noundef nonnull %5, ptr noundef nonnull @.str.562) #8
  call void @llvm.lifetime.start.p0(i64 24, ptr nonnull %3) #8
  call void @llvm.lifetime.start.p0(i64 4, ptr nonnull %4) #8
  call void @initPQExpBuffer(ptr noundef nonnull %3) #8
  %28 = load ptr, ptr @pset, align 8
  %29 = call zeroext i1 @processSQLNamePattern(ptr noundef %28, ptr noundef nonnull %5, ptr noundef %0, i1 noundef zeroext true, i1 noundef zeroext false, ptr noundef null, ptr noundef nonnull @.str.563, ptr noundef null, ptr noundef null, ptr noundef nonnull %3, ptr noundef nonnull %4) #8
  %30 = load i32, ptr %4, align 4
  %.not19.i = icmp slt i32 %30, 1
  br i1 %.not19.i, label %32, label %31

31:                                               ; preds = %27
  call void (i32, i32, ptr, ...) @pg_log_generic(i32 noundef 4, i32 noundef 0, ptr noundef nonnull @.str.912, ptr noundef %0) #8
  call void @termPQExpBuffer(ptr noundef nonnull %3) #8
  call void @llvm.lifetime.end.p0(i64 4, ptr nonnull %4) #8
  call void @llvm.lifetime.end.p0(i64 24, ptr nonnull %3) #8
  call void @termPQExpBuffer(ptr noundef nonnull %5) #8
  br label %42

32:                                               ; preds = %27
  call void @termPQExpBuffer(ptr noundef nonnull %3) #8
  call void @llvm.lifetime.end.p0(i64 4, ptr nonnull %4) #8
  call void @llvm.lifetime.end.p0(i64 24, ptr nonnull %3) #8
  call void @appendPQExpBufferStr(ptr noundef nonnull %5, ptr noundef nonnull @.str.23) #8
  %33 = load ptr, ptr %5, align 8
  %34 = call ptr @PSQLexec(ptr noundef %33) #8
  call void @termPQExpBuffer(ptr noundef nonnull %5) #8
  %.not = icmp eq ptr %34, null
  br i1 %.not, label %42, label %35

35:                                               ; preds = %32
  %36 = getelementptr inbounds nuw i8, ptr %6, i64 128
  store ptr @.str.564, ptr %36, align 8
  %37 = getelementptr inbounds nuw i8, ptr %6, i64 144
  store i8 1, ptr %37, align 8
  %38 = getelementptr inbounds nuw i8, ptr %6, i64 152
  store ptr @describeSubscriptions.translate_columns, ptr %38, align 8
  %39 = getelementptr inbounds nuw i8, ptr %6, i64 160
  store i32 15, ptr %39, align 8
  %40 = load ptr, ptr getelementptr inbounds nuw (i8, ptr @pset, i64 16), align 8
  %41 = load ptr, ptr getelementptr inbounds nuw (i8, ptr @pset, i64 376), align 8
  call void @printQuery(ptr noundef nonnull %34, ptr noundef nonnull %6, ptr noundef %40, i1 noundef zeroext false, ptr noundef %41) #8
  call void @PQclear(ptr noundef nonnull %34) #8
  br label %42

42:                                               ; preds = %32, %35, %31, %10
  %.0 = phi i1 [ true, %10 ], [ true, %35 ], [ false, %31 ], [ false, %32 ]
  call void @llvm.lifetime.end.p0(i64 168, ptr nonnull %6) #8
  call void @llvm.lifetime.end.p0(i64 24, ptr nonnull %5) #8
  ret i1 %.0
}